; Function Attrs: nounwind sspstrong uwtable
define dso_local void @rb_check_inheritable(i64 noundef %0) local_unnamed_addr #0 {
  %2 = icmp eq i64 %0, 0
  %3 = and i64 %0, 7
  %4 = icmp ne i64 %3, 0
  %5 = or i1 %2, %4
  br i1 %5, label %rbimpl_RB_TYPE_P_fastpath.exit.thread, label %rbimpl_RB_TYPE_P_fastpath.exit

rbimpl_RB_TYPE_P_fastpath.exit:                   ; preds = %1
  %6 = inttoptr i64 %0 to ptr
  %7 = load i64, ptr %6, align 8, !tbaa !35
  %8 = and i64 %7, 31
  %9 = icmp eq i64 %8, 2
  br i1 %9, label %rbimpl_RB_TYPE_P_fastpath.exit.i, label %rbimpl_RB_TYPE_P_fastpath.exit.thread

rbimpl_RB_TYPE_P_fastpath.exit.thread:            ; preds = %1, %rbimpl_RB_TYPE_P_fastpath.exit
  %10 = load i64, ptr @rb_eTypeError, align 8, !tbaa !29
  %11 = tail call i64 @rb_obj_class(i64 noundef %0) #19
  tail call void (i64, ptr, ...) @rb_raise(i64 noundef %10, ptr noundef nonnull @.str, i64 noundef %11) #21
  unreachable

rbimpl_RB_TYPE_P_fastpath.exit.i:                 ; preds = %rbimpl_RB_TYPE_P_fastpath.exit
  %12 = and i64 %7, 8194
  %or.cond = icmp eq i64 %12, 8194
  br i1 %or.cond, label %13, label %RCLASS_SINGLETON_P.exit.thread

13:                                               ; preds = %rbimpl_RB_TYPE_P_fastpath.exit.i
  %14 = load i64, ptr @rb_eTypeError, align 8, !tbaa !29
  tail call void (i64, ptr, ...) @rb_raise(i64 noundef %14, ptr noundef nonnull @.str.1) #21
  unreachable

RCLASS_SINGLETON_P.exit.thread:                   ; preds = %rbimpl_RB_TYPE_P_fastpath.exit.i
  %15 = load i64, ptr @rb_cClass, align 8, !tbaa !29
  %16 = icmp eq i64 %0, %15
  br i1 %16, label %17, label %19

17:                                               ; preds = %RCLASS_SINGLETON_P.exit.thread
  %18 = load i64, ptr @rb_eTypeError, align 8, !tbaa !29
  tail call void (i64, ptr, ...) @rb_raise(i64 noundef %18, ptr noundef nonnull @.str.2) #21
  unreachable

19:                                               ; preds = %RCLASS_SINGLETON_P.exit.thread
  ret void
}